; Function Attrs: nofree norecurse nosync nounwind memory(readwrite, inaccessiblemem: none) uwtable
define noundef ptr @duckdb_je_edata_avail_remove_any(ptr noundef captures(none) %0) local_unnamed_addr #2 {
  %2 = load ptr, ptr %0, align 8, !tbaa !3
  %3 = icmp eq ptr %2, null
  br i1 %3, label %duckdb_je_edata_avail_any.exit, label %select.unfold

select.unfold:                                    ; preds = %1
  %4 = getelementptr inbounds nuw i8, ptr %2, i64 48
  %5 = load ptr, ptr %4, align 8, !tbaa !10
  %.not.i.i = icmp eq ptr %5, null
  %spec.select = select i1 %.not.i.i, ptr %2, ptr %5
  tail call void @duckdb_je_edata_avail_remove(ptr noundef nonnull %0, ptr noundef nonnull %spec.select)
  br label %duckdb_je_edata_avail_any.exit

duckdb_je_edata_avail_any.exit:                   ; preds = %1, %select.unfold
  %.0.i.i8 = phi ptr [ %spec.select, %select.unfold ], [ null, %1 ]
  ret ptr %.0.i.i8
}